target datalayout = "e-m:e-p270:32:32-p271:32:32-p272:64:64-i64:64-i128:128-f80:128-n8:16:32:64-S128"
target triple = "x86_64-pc-linux-gnu"

%struct.virtio_pci_cap64 = type { %struct.virtio_pci_cap, i32, i32 }
%struct.virtio_pci_cap = type { i8, i8, i8, i8, i8, i8, [2 x i8], i32, i32 }
%struct.AddressSpace = type { %struct.rcu_head, ptr, ptr, ptr, i32, i32, ptr, %union.anon, %union.anon.0, i64, i64, %struct.QemuMutex, %struct.anon }
%struct.rcu_head = type { ptr, ptr }
%union.anon = type { %struct.QTailQLink }
%struct.QTailQLink = type { ptr, ptr }
%union.anon.0 = type { %struct.QTailQLink }
%struct.QemuMutex = type { %union.pthread_mutex_t, i8 }
%union.pthread_mutex_t = type { %struct.__pthread_mutex_s }
%struct.__pthread_mutex_s = type { i32, i32, i32, i32, i32, i16, i16, %struct.__pthread_internal_list }
%struct.__pthread_internal_list = type { ptr, ptr }
%struct.anon = type { ptr }
%struct.VirtIOPCIProxy = type { %struct.PCIDevice, %struct.MemoryRegion, %union.anon.7, %struct.MemoryRegion, %struct.MemoryRegion, %struct.AddressSpace, %struct.AddressSpace, i32, i32, i32, i32, i32, i32, i8, i8, i32, i16, i32, i32, i32, i32, [2 x i32], [1024 x %struct.VirtIOPCIQueue], ptr, i32, %struct.VirtioBusState }
%struct.PCIDevice = type { %struct.DeviceState, i8, i8, ptr, ptr, ptr, ptr, ptr, i32, %struct.PCIReqIDCache, [64 x i8], [7 x %struct.PCIIORegion], %struct.AddressSpace, %struct.MemoryRegion, %struct.MemoryRegion, ptr, ptr, [3 x ptr], i8, i8, i32, i8, i32, ptr, ptr, ptr, ptr, ptr, ptr, %struct.MemoryRegion, %struct.MemoryRegion, %struct.MemoryRegion, ptr, i8, i32, i8, %struct.PCIExpressDevice, ptr, ptr, i32, i8, %struct.MemoryRegion, i32, ptr, ptr, ptr, ptr, i16, %struct.DOECap, ptr, i32, i32 }
%struct.DeviceState = type { %struct.Object, ptr, ptr, i8, i8, i64, i32, i8, ptr, %struct.NamedGPIOListHead, %struct.NamedClockListHead, %struct.BusStateHead, i32, i32, i32, %struct.ResettableState, ptr, %struct.MemReentrancyGuard }
%struct.Object = type { ptr, ptr, ptr, i32, ptr }
%struct.NamedGPIOListHead = type { ptr }
%struct.NamedClockListHead = type { ptr }
%struct.BusStateHead = type { ptr }
%struct.ResettableState = type { i32, i8, i8 }
%struct.MemReentrancyGuard = type { i8 }
%struct.PCIReqIDCache = type { ptr, i32 }
%struct.PCIIORegion = type { i64, i64, i8, ptr, ptr }
%struct.PCIExpressDevice = type { i8, i8, i8, i16, %struct.PCIEAERLog, i16, i16, i16, %struct.PCIESriovPF, %struct.PCIESriovVF }
%struct.PCIEAERLog = type { i16, i16, ptr }
%struct.PCIESriovPF = type { i16, [7 x i8], ptr, ptr }
%struct.PCIESriovVF = type { ptr, i16 }
%struct.DOECap = type { ptr, i16, %struct.anon.4, %struct.anon.5, %struct.anon.6, ptr, ptr, i32, i32, i32, ptr, i16, i32 }
%struct.anon.4 = type { i8, i16 }
%struct.anon.5 = type { i8, i8, i8 }
%struct.anon.6 = type { i8, i8, i8, i8 }
%union.anon.7 = type { %struct.anon.8 }
%struct.anon.8 = type { %struct.VirtIOPCIRegion, %struct.VirtIOPCIRegion, %struct.VirtIOPCIRegion, %struct.VirtIOPCIRegion, %struct.VirtIOPCIRegion }
%struct.VirtIOPCIRegion = type { %struct.MemoryRegion, i32, i32, i32 }
%struct.MemoryRegion = type { %struct.Object, i8, i8, i8, i8, i8, i8, i8, i8, i8, i8, ptr, ptr, ptr, ptr, ptr, ptr, i32, i128, i64, ptr, i64, i8, i8, i8, i8, ptr, i64, i32, %union.anon.1, %union.anon.2, %union.anon.3, ptr, i32, ptr, ptr, i8 }
%union.anon.1 = type { %struct.QTailQLink }
%union.anon.2 = type { %struct.QTailQLink }
%union.anon.3 = type { %struct.QTailQLink }
%struct.VirtIOPCIQueue = type { i16, i8, i8, [2 x i32], [2 x i32], [2 x i32] }
%struct.VirtioBusState = type { %struct.BusState, i8, i32 }
%struct.BusState = type { %struct.Object, ptr, ptr, ptr, i32, i8, i8, i32, %union.BusChildHead, %struct.BusStateEntry, %struct.ResettableState }
%union.BusChildHead = type { %struct.QTailQLink }
%struct.BusStateEntry = type { ptr, ptr }

@__const.virtio_pci_add_shm_cap.cap = private unnamed_addr constant %struct.virtio_pci_cap64 { %struct.virtio_pci_cap { i8 0, i8 0, i8 24, i8 8, i8 0, i8 0, [2 x i8] zeroinitializer, i32 0, i32 0 }, i32 0, i32 0 }, align 4
@.str.5 = private unnamed_addr constant [31 x i8] c"../qemu/hw/virtio/virtio-pci.c\00", align 1
@error_abort = external global ptr, align 8
@.str.9 = private unnamed_addr constant [28 x i8] c"cap->cap_len >= sizeof *cap\00", align 1
@__PRETTY_FUNCTION__.virtio_pci_add_mem_cap = private unnamed_addr constant [70 x i8] c"int virtio_pci_add_mem_cap(VirtIOPCIProxy *, struct virtio_pci_cap *)\00", align 1

; Function Attrs: alwaysinline nounwind
define internal ptr @memcpy.inline(ptr noalias nonnull %0, ptr noalias nonnull %1, i64 %2) #7 {
  %4 = alloca ptr, align 8
  %5 = alloca ptr, align 8
  %6 = alloca i64, align 8
  store ptr %0, ptr %4, align 8
  store ptr %1, ptr %5, align 8
  store i64 %2, ptr %6, align 8
  %7 = load ptr, ptr %4, align 8
  %8 = load ptr, ptr %5, align 8
  %9 = load i64, ptr %6, align 8
  %10 = load ptr, ptr %4, align 8
  %11 = call i64 @llvm.objectsize.i64.p0(ptr %10, i1 false, i1 true, i1 false)
  %12 = call ptr @__memcpy_chk(ptr noundef %7, ptr noundef %8, i64 noundef %9, i64 noundef %11) #13
  ret ptr %12
}

; Function Attrs: nounwind sspstrong uwtable
define internal i32 @virtio_pci_add_mem_cap(ptr noundef %0, ptr noundef %1) #0 {
  %3 = alloca ptr, align 8
  %4 = alloca ptr, align 8
  %5 = alloca ptr, align 8
  %6 = alloca i32, align 4
  store ptr %0, ptr %3, align 8
  store ptr %1, ptr %4, align 8
  call void @llvm.lifetime.start.p0(i64 8, ptr %5) #13
  %7 = load ptr, ptr %3, align 8
  %8 = getelementptr inbounds nuw %struct.VirtIOPCIProxy, ptr %7, i32 0, i32 0
  store ptr %8, ptr %5, align 8
  call void @llvm.lifetime.start.p0(i64 4, ptr %6) #13
  store i32 0, ptr %6, align 4, !annotation !4
  %9 = load ptr, ptr %5, align 8
  %10 = load ptr, ptr %4, align 8
  %11 = getelementptr inbounds nuw %struct.virtio_pci_cap, ptr %10, i32 0, i32 2
  %12 = load i8, ptr %11, align 2
  %13 = call i32 @pci_add_capability(ptr noundef %9, i8 noundef zeroext 9, i8 noundef zeroext 0, i8 noundef zeroext %12, ptr noundef @error_abort)
  store i32 %13, ptr %6, align 4
  %14 = load ptr, ptr %4, align 8
  %15 = getelementptr inbounds nuw %struct.virtio_pci_cap, ptr %14, i32 0, i32 2
  %16 = load i8, ptr %15, align 2
  %17 = zext i8 %16 to i64
  %18 = icmp uge i64 %17, 16
  br i1 %18, label %19, label %20

19:                                               ; preds = %2
  br label %21

20:                                               ; preds = %2
  call void @__assert_fail(ptr noundef @.str.9, ptr noundef @.str.5, i32 noundef 1419, ptr noundef @__PRETTY_FUNCTION__.virtio_pci_add_mem_cap) #14
  unreachable

21:                                               ; preds = %19
  %22 = load ptr, ptr %5, align 8
  %23 = getelementptr inbounds nuw %struct.PCIDevice, ptr %22, i32 0, i32 3
  %24 = load ptr, ptr %23, align 16
  %25 = load i32, ptr %6, align 4
  %26 = sext i32 %25 to i64
  %27 = getelementptr inbounds i8, ptr %24, i64 %26
  %28 = getelementptr inbounds i8, ptr %27, i64 2
  %29 = load ptr, ptr %4, align 8
  %30 = getelementptr inbounds nuw %struct.virtio_pci_cap, ptr %29, i32 0, i32 2
  %31 = load ptr, ptr %4, align 8
  %32 = getelementptr inbounds nuw %struct.virtio_pci_cap, ptr %31, i32 0, i32 2
  %33 = load i8, ptr %32, align 2
  %34 = zext i8 %33 to i32
  %35 = sub i32 %34, 2
  %36 = sext i32 %35 to i64
  %37 = call ptr @memcpy.inline(ptr noundef %28, ptr noundef %30, i64 noundef %36) #13
  %38 = load i32, ptr %6, align 4
  call void @llvm.lifetime.end.p0(i64 4, ptr %6) #13
  call void @llvm.lifetime.end.p0(i64 8, ptr %5) #13
  ret i32 %38
}

; Function Attrs: inlinehint nounwind sspstrong uwtable
define internal i32 @cpu_to_le32(i32 noundef %0) #4 {
  %2 = alloca i32, align 4
  store i32 %0, ptr %2, align 4
  %3 = load i32, ptr %2, align 4
  ret i32 %3
}

; Function Attrs: nounwind sspstrong uwtable
define dso_local i32 @virtio_pci_add_shm_cap(ptr noundef %0, i8 noundef zeroext %1, i64 noundef %2, i64 noundef %3, i8 noundef zeroext %4) #0 {
  %6 = alloca ptr, align 8
  %7 = alloca i8, align 1
  %8 = alloca i64, align 8
  %9 = alloca i64, align 8
  %10 = alloca i8, align 1
  %11 = alloca %struct.virtio_pci_cap64, align 4
  store ptr %0, ptr %6, align 8
  store i8 %1, ptr %7, align 1
  store i64 %2, ptr %8, align 8
  store i64 %3, ptr %9, align 8
  store i8 %4, ptr %10, align 1
  call void @llvm.lifetime.start.p0(i64 24, ptr %11) #13
  call void @llvm.memcpy.p0.p0.i64(ptr align 4 %11, ptr align 4 @__const.virtio_pci_add_shm_cap.cap, i64 24, i1 false)
  %12 = load i8, ptr %7, align 1
  %13 = getelementptr inbounds nuw %struct.virtio_pci_cap64, ptr %11, i32 0, i32 0
  %14 = getelementptr inbounds nuw %struct.virtio_pci_cap, ptr %13, i32 0, i32 4
  store i8 %12, ptr %14, align 4
  %15 = load i64, ptr %9, align 8
  %16 = trunc i64 %15 to i32
  %17 = call i32 @cpu_to_le32(i32 noundef %16)
  %18 = getelementptr inbounds nuw %struct.virtio_pci_cap64, ptr %11, i32 0, i32 0
  %19 = getelementptr inbounds nuw %struct.virtio_pci_cap, ptr %18, i32 0, i32 8
  store i32 %17, ptr %19, align 4
  %20 = load i64, ptr %9, align 8
  %21 = lshr i64 %20, 32
  %22 = trunc i64 %21 to i32
  %23 = call i32 @cpu_to_le32(i32 noundef %22)
  %24 = getelementptr inbounds nuw %struct.virtio_pci_cap64, ptr %11, i32 0, i32 2
  store i32 %23, ptr %24, align 4
  %25 = load i64, ptr %8, align 8
  %26 = trunc i64 %25 to i32
  %27 = call i32 @cpu_to_le32(i32 noundef %26)
  %28 = getelementptr inbounds nuw %struct.virtio_pci_cap64, ptr %11, i32 0, i32 0
  %29 = getelementptr inbounds nuw %struct.virtio_pci_cap, ptr %28, i32 0, i32 7
  store i32 %27, ptr %29, align 4
  %30 = load i64, ptr %8, align 8
  %31 = lshr i64 %30, 32
  %32 = trunc i64 %31 to i32
  %33 = call i32 @cpu_to_le32(i32 noundef %32)
  %34 = getelementptr inbounds nuw %struct.virtio_pci_cap64, ptr %11, i32 0, i32 1
  store i32 %33, ptr %34, align 4
  %35 = load i8, ptr %10, align 1
  %36 = getelementptr inbounds nuw %struct.virtio_pci_cap64, ptr %11, i32 0, i32 0
  %37 = getelementptr inbounds nuw %struct.virtio_pci_cap, ptr %36, i32 0, i32 5
  store i8 %35, ptr %37, align 1
  %38 = load ptr, ptr %6, align 8
  %39 = getelementptr inbounds nuw %struct.virtio_pci_cap64, ptr %11, i32 0, i32 0
  %40 = call i32 @virtio_pci_add_mem_cap(ptr noundef %38, ptr noundef %39)
  call void @llvm.lifetime.end.p0(i64 24, ptr %11) #13
  ret i32 %40
}