; Function Attrs: nounwind sspstrong uwtable
define dso_local i32 @virtio_pci_add_shm_cap(ptr noundef %0, i8 noundef zeroext %1, i64 noundef %2, i64 noundef %3, i8 noundef zeroext %4) local_unnamed_addr #0 {
virtio_pci_add_mem_cap.exit:
  %5 = trunc i64 %3 to i32
  %6 = lshr i64 %3, 32
  %7 = trunc nuw i64 %6 to i32
  %8 = trunc i64 %2 to i32
  %9 = lshr i64 %2, 32
  %10 = trunc nuw i64 %9 to i32
  %11 = tail call i32 @pci_add_capability(ptr noundef %0, i8 noundef zeroext 9, i8 noundef zeroext 0, i8 noundef zeroext 24, ptr noundef nonnull @error_abort) #15
  %12 = getelementptr inbounds nuw i8, ptr %0, i64 160
  %13 = load ptr, ptr %12, align 16
  %14 = sext i32 %11 to i64
  %15 = getelementptr inbounds i8, ptr %13, i64 %14
  %16 = getelementptr inbounds nuw i8, ptr %15, i64 2
  store i16 2072, ptr %16, align 1
  %.sroa.0.sroa.4.2..sroa_idx = getelementptr inbounds nuw i8, ptr %15, i64 4
  store i8 %1, ptr %.sroa.0.sroa.4.2..sroa_idx, align 1
  %.sroa.0.sroa.5.2..sroa_idx = getelementptr inbounds nuw i8, ptr %15, i64 5
  store i8 %4, ptr %.sroa.0.sroa.5.2..sroa_idx, align 1
  %.sroa.0.sroa.6.2..sroa_idx = getelementptr inbounds nuw i8, ptr %15, i64 6
  store i16 0, ptr %.sroa.0.sroa.6.2..sroa_idx, align 1
  %.sroa.6.2..sroa_idx = getelementptr inbounds nuw i8, ptr %15, i64 8
  store i32 %8, ptr %.sroa.6.2..sroa_idx, align 1
  %.sroa.7.2..sroa_idx = getelementptr inbounds nuw i8, ptr %15, i64 12
  store i32 %5, ptr %.sroa.7.2..sroa_idx, align 1
  %.sroa.8.2..sroa_idx = getelementptr inbounds nuw i8, ptr %15, i64 16
  store i32 %10, ptr %.sroa.8.2..sroa_idx, align 1
  %.sroa.9.2..sroa_idx = getelementptr inbounds nuw i8, ptr %15, i64 20
  store i32 %7, ptr %.sroa.9.2..sroa_idx, align 1
  ret i32 %11
}